target datalayout = "e-m:e-p270:32:32-p271:32:32-p272:64:64-i64:64-i128:128-f80:128-n8:16:32:64-S128"
target triple = "x86_64-pc-linux-gnu"

%struct.Field = type { i32, ptr, i32 }

@_ZL22names_UDateFormatStyle = internal constant [4 x %struct.Field] [%struct.Field { i32 5, ptr @.str.56, i32 0 }, %struct.Field { i32 5, ptr @.str.57, i32 1 }, %struct.Field { i32 5, ptr @.str.58, i32 2 }, %struct.Field { i32 5, ptr @.str.59, i32 3 }], align 16
@_ZL19names_UAcceptResult = internal constant [3 x %struct.Field] [%struct.Field { i32 12, ptr @.str.60, i32 0 }, %struct.Field { i32 12, ptr @.str.61, i32 1 }, %struct.Field { i32 12, ptr @.str.62, i32 2 }], align 16

; Function Attrs: mustprogress nounwind uwtable
define internal noundef ptr @_ZL16_udbg_enumFields14UDebugEnumType(i32 noundef %0) #0 {
  %2 = alloca ptr, align 8
  %3 = alloca i32, align 4
  store i32 %0, ptr %3, align 4, !tbaa !23
  %4 = load i32, ptr %3, align 4, !tbaa !23
  switch i32 %4, label %11 [
    i32 0, label %5
    i32 1, label %6
    i32 2, label %7
    i32 3, label %8
    i32 4, label %9
    i32 5, label %10
  ]

5:                                                ; preds = %1
  store ptr @_ZL20names_UDebugEnumType, ptr %2, align 8
  br label %12

6:                                                ; preds = %1
  store ptr @_ZL25names_UCalendarDateFields, ptr %2, align 8
  br label %12

7:                                                ; preds = %1
  store ptr @_ZL21names_UCalendarMonths, ptr %2, align 8
  br label %12

8:                                                ; preds = %1
  store ptr @_ZL22names_UDateFormatStyle, ptr %2, align 8
  br label %12

9:                                                ; preds = %1
  store ptr @_ZL19names_UAcceptResult, ptr %2, align 8
  br label %12

10:                                               ; preds = %1
  store ptr @_ZL24names_UColAttributeValue, ptr %2, align 8
  br label %12

11:                                               ; preds = %1
  store ptr null, ptr %2, align 8
  br label %12

12:                                               ; preds = %11, %10, %9, %8, %7, %6, %5
  %13 = load ptr, ptr %2, align 8
  ret ptr %13
}

; Function Attrs: mustprogress nounwind uwtable
define internal noundef i32 @_ZL15_udbg_enumCount14UDebugEnumTypea(i32 noundef %0, i8 noundef signext %1) #0 {
  %3 = alloca i32, align 4
  %4 = alloca i32, align 4
  %5 = alloca i8, align 1
  store i32 %0, ptr %4, align 4, !tbaa !23
  store i8 %1, ptr %5, align 1, !tbaa !25
  %6 = load i32, ptr %4, align 4, !tbaa !23
  switch i32 %6, label %31 [
    i32 0, label %7
    i32 1, label %11
    i32 2, label %15
    i32 3, label %19
    i32 4, label %23
    i32 5, label %27
  ]

7:                                                ; preds = %2
  %8 = load i8, ptr %5, align 1, !tbaa !25
  %9 = icmp ne i8 %8, 0
  %10 = select i1 %9, i32 6, i32 6
  store i32 %10, ptr %3, align 4
  br label %32

11:                                               ; preds = %2
  %12 = load i8, ptr %5, align 1, !tbaa !25
  %13 = icmp ne i8 %12, 0
  %14 = select i1 %13, i32 24, i32 24
  store i32 %14, ptr %3, align 4
  br label %32

15:                                               ; preds = %2
  %16 = load i8, ptr %5, align 1, !tbaa !25
  %17 = icmp ne i8 %16, 0
  %18 = select i1 %17, i32 13, i32 13
  store i32 %18, ptr %3, align 4
  br label %32

19:                                               ; preds = %2
  %20 = load i8, ptr %5, align 1, !tbaa !25
  %21 = icmp ne i8 %20, 0
  %22 = select i1 %21, i32 4, i32 4
  store i32 %22, ptr %3, align 4
  br label %32

23:                                               ; preds = %2
  %24 = load i8, ptr %5, align 1, !tbaa !25
  %25 = icmp ne i8 %24, 0
  %26 = select i1 %25, i32 3, i32 3
  store i32 %26, ptr %3, align 4
  br label %32

27:                                               ; preds = %2
  %28 = load i8, ptr %5, align 1, !tbaa !25
  %29 = icmp ne i8 %28, 0
  %30 = select i1 %29, i32 26, i32 11
  store i32 %30, ptr %3, align 4
  br label %32

31:                                               ; preds = %2
  store i32 -1, ptr %3, align 4
  br label %32

32:                                               ; preds = %31, %27, %23, %19, %15, %11, %7
  %33 = load i32, ptr %3, align 4
  ret i32 %33
}

; Function Attrs: mustprogress uwtable
define i32 @udbg_enumArrayValue(i32 noundef %0, i32 noundef %1) #1 {
  %3 = alloca i32, align 4
  %4 = alloca i32, align 4
  %5 = alloca i32, align 4
  %6 = alloca ptr, align 8
  %7 = alloca i32, align 4
  store i32 %0, ptr %4, align 4, !tbaa !23
  store i32 %1, ptr %5, align 4, !tbaa !14
  %8 = load i32, ptr %5, align 4, !tbaa !14
  %9 = icmp slt i32 %8, 0
  br i1 %9, label %15, label %10

10:                                               ; preds = %2
  %11 = load i32, ptr %5, align 4, !tbaa !14
  %12 = load i32, ptr %4, align 4, !tbaa !23
  %13 = call noundef i32 @_ZL15_udbg_enumCount14UDebugEnumTypea(i32 noundef %12, i8 noundef signext 0)
  %14 = icmp sge i32 %11, %13
  br i1 %14, label %15, label %16

15:                                               ; preds = %10, %2
  store i32 -1, ptr %3, align 4
  br label %30

16:                                               ; preds = %10
  call void @llvm.lifetime.start.p0(i64 8, ptr %6) #13
  %17 = load i32, ptr %4, align 4, !tbaa !23
  %18 = call noundef ptr @_ZL16_udbg_enumFields14UDebugEnumType(i32 noundef %17)
  store ptr %18, ptr %6, align 8, !tbaa !26
  %19 = load ptr, ptr %6, align 8, !tbaa !26
  %20 = icmp eq ptr %19, null
  br i1 %20, label %21, label %22

21:                                               ; preds = %16
  store i32 -1, ptr %3, align 4
  store i32 1, ptr %7, align 4
  br label %29

22:                                               ; preds = %16
  %23 = load ptr, ptr %6, align 8, !tbaa !26
  %24 = load i32, ptr %5, align 4, !tbaa !14
  %25 = sext i32 %24 to i64
  %26 = getelementptr inbounds %struct.Field, ptr %23, i64 %25
  %27 = getelementptr inbounds nuw %struct.Field, ptr %26, i32 0, i32 2
  %28 = load i32, ptr %27, align 8, !tbaa !31
  store i32 %28, ptr %3, align 4
  store i32 1, ptr %7, align 4
  br label %29

29:                                               ; preds = %22, %21
  call void @llvm.lifetime.end.p0(i64 8, ptr %6) #13
  br label %30

30:                                               ; preds = %29, %15
  %31 = load i32, ptr %3, align 4
  ret i32 %31
}