; Function Attrs: mustprogress nofree norecurse nosync nounwind willreturn memory(none) uwtable
define i32 @udbg_enumArrayValue(i32 noundef %0, i32 noundef %1) local_unnamed_addr #10 {
  %3 = icmp sgt i32 %1, -1
  %4 = icmp ult i32 %0, 6
  %or.cond = and i1 %3, %4
  br i1 %or.cond, label %switch.lookup, label %_ZL16_udbg_enumFields14UDebugEnumType.exit

switch.lookup:                                    ; preds = %2
  %5 = zext nneg i32 %0 to i64
  %switch.gep = getelementptr inbounds nuw [6 x i32], ptr @switch.table.udbg_enumArrayValue, i64 0, i64 %5
  %switch.load = load i32, ptr %switch.gep, align 4
  %.not = icmp samesign ult i32 %1, %switch.load
  br i1 %.not, label %switch.lookup14, label %_ZL16_udbg_enumFields14UDebugEnumType.exit

switch.lookup14:                                  ; preds = %switch.lookup
  %6 = zext nneg i32 %0 to i64
  %switch.gep15 = getelementptr inbounds nuw [6 x ptr], ptr @switch.table.udbg_enumByName, i64 0, i64 %6
  %switch.load16 = load ptr, ptr %switch.gep15, align 8
  %7 = zext nneg i32 %1 to i64
  %8 = getelementptr inbounds nuw %struct.Field, ptr %switch.load16, i64 %7, i32 2
  %9 = load i32, ptr %8, align 8, !tbaa !18
  br label %_ZL16_udbg_enumFields14UDebugEnumType.exit

_ZL16_udbg_enumFields14UDebugEnumType.exit:       ; preds = %switch.lookup14, %2, %switch.lookup
  %.0 = phi i32 [ -1, %switch.lookup ], [ -1, %2 ], [ %9, %switch.lookup14 ]
  ret i32 %.0
}